target datalayout = "e-m:e-p270:32:32-p271:32:32-p272:64:64-i64:64-i128:128-f80:128-n8:16:32:64-S128"
target triple = "x86_64-pc-linux-gnu"

%"class.std::vector" = type { %"struct.std::_Vector_base" }
%"struct.std::_Vector_base" = type { %"struct.std::_Vector_base<opencc::UTF8StringSliceBase<unsigned char>, std::allocator<opencc::UTF8StringSliceBase<unsigned char>>>::_Vector_impl" }
%"struct.std::_Vector_base<opencc::UTF8StringSliceBase<unsigned char>, std::allocator<opencc::UTF8StringSliceBase<unsigned char>>>::_Vector_impl" = type { %"struct.std::_Vector_base<opencc::UTF8StringSliceBase<unsigned char>, std::allocator<opencc::UTF8StringSliceBase<unsigned char>>>::_Vector_impl_data" }
%"struct.std::_Vector_base<opencc::UTF8StringSliceBase<unsigned char>, std::allocator<opencc::UTF8StringSliceBase<unsigned char>>>::_Vector_impl_data" = type { ptr, ptr, ptr }
%"struct.opencc::PhraseExtract::Signals" = type { i64, double, double, double }
%"class.opencc::PhraseExtract" = type { ptr, i64, i64, i64, i64, %"class.std::function", %"class.std::function", i8, i8, i8, i8, i8, i8, i8, i8, %"class.opencc::UTF8StringSliceBase.3", i64, double, %"class.std::vector", %"class.std::vector", %"class.std::vector", %"class.std::vector", ptr }
%"class.std::function" = type { %"class.std::_Function_base", ptr }
%"class.std::_Function_base" = type { %"union.std::_Any_data", ptr }
%"union.std::_Any_data" = type { %"union.std::_Nocopy_types" }
%"union.std::_Nocopy_types" = type { { i64, i64 } }
%"class.opencc::UTF8StringSliceBase.3" = type { ptr, i64, i64 }

; Function Attrs: mustprogress uwtable
define noundef nonnull align 8 dereferenceable(32) ptr @_ZNK6opencc13PhraseExtract6SignalERKNS_19UTF8StringSliceBaseIhEE(ptr noundef nonnull align 8 dereferenceable(256) %0, ptr noundef nonnull align 8 dereferenceable(10) %1) #4 align 2 {
  %3 = alloca ptr, align 8
  %4 = alloca ptr, align 8
  store ptr %0, ptr %3, align 8
  store ptr %1, ptr %4, align 8
  %5 = load ptr, ptr %3, align 8
  %6 = getelementptr inbounds %"class.opencc::PhraseExtract", ptr %5, i32 0, i32 22
  %7 = load ptr, ptr %6, align 8
  %8 = load ptr, ptr %4, align 8
  %9 = call noundef nonnull align 8 dereferenceable(32) ptr @_ZN6opencc13PhraseExtract8DictType3GetERKNS_19UTF8StringSliceBaseIhEE(ptr noundef nonnull align 8 dereferenceable(112) %7, ptr noundef nonnull align 8 dereferenceable(10) %8)
  ret ptr %9
}

; Function Attrs: mustprogress uwtable
define noundef i64 @_ZNK6opencc13PhraseExtract9FrequencyERKNS_19UTF8StringSliceBaseIhEE(ptr noundef nonnull align 8 dereferenceable(256) %0, ptr noundef nonnull align 8 dereferenceable(10) %1) #4 align 2 {
  %3 = alloca ptr, align 8
  %4 = alloca ptr, align 8
  %5 = alloca i64, align 8
  store ptr %0, ptr %3, align 8
  store ptr %1, ptr %4, align 8
  %6 = load ptr, ptr %3, align 8
  %7 = load ptr, ptr %4, align 8
  %8 = call noundef nonnull align 8 dereferenceable(32) ptr @_ZNK6opencc13PhraseExtract6SignalERKNS_19UTF8StringSliceBaseIhEE(ptr noundef nonnull align 8 dereferenceable(256) %6, ptr noundef nonnull align 8 dereferenceable(10) %7)
  %9 = getelementptr inbounds %"struct.opencc::PhraseExtract::Signals", ptr %8, i32 0, i32 0
  %10 = load i64, ptr %9, align 8
  store i64 %10, ptr %5, align 8
  %11 = load i64, ptr %5, align 8
  ret i64 %11
}

; Function Attrs: mustprogress uwtable
define noundef double @_ZNK6opencc13PhraseExtract14LogProbabilityERKNS_19UTF8StringSliceBaseIhEE(ptr noundef nonnull align 8 dereferenceable(256) %0, ptr noundef nonnull align 8 dereferenceable(10) %1) #4 align 2 {
  %3 = alloca ptr, align 8
  %4 = alloca ptr, align 8
  %5 = alloca i64, align 8
  store ptr %0, ptr %3, align 8
  store ptr %1, ptr %4, align 8
  %6 = load ptr, ptr %3, align 8
  %7 = load ptr, ptr %4, align 8
  %8 = call noundef i64 @_ZNK6opencc13PhraseExtract9FrequencyERKNS_19UTF8StringSliceBaseIhEE(ptr noundef nonnull align 8 dereferenceable(256) %6, ptr noundef nonnull align 8 dereferenceable(10) %7)
  store i64 %8, ptr %5, align 8
  %9 = load i64, ptr %5, align 8
  %10 = uitofp i64 %9 to double
  %11 = call double @log(double noundef %10) #3
  %12 = getelementptr inbounds %"class.opencc::PhraseExtract", ptr %6, i32 0, i32 17
  %13 = load double, ptr %12, align 8
  %14 = fsub double %11, %13
  ret double %14
}