; Function Attrs: mustprogress uwtable
define noundef double @_ZNK6opencc13PhraseExtract14LogProbabilityERKNS_19UTF8StringSliceBaseIhEE(ptr nocapture noundef nonnull readonly align 8 dereferenceable(256) %0, ptr noundef nonnull align 8 dereferenceable(10) %1) local_unnamed_addr #3 align 2 {
  %3 = getelementptr inbounds i8, ptr %0, i64 248
  %4 = load ptr, ptr %3, align 8
  %5 = tail call noundef nonnull align 8 dereferenceable(32) ptr @_ZN6opencc13PhraseExtract8DictType3GetERKNS_19UTF8StringSliceBaseIhEE(ptr noundef nonnull align 8 dereferenceable(112) %4, ptr noundef nonnull align 8 dereferenceable(10) %1)
  %6 = load i64, ptr %5, align 8
  %7 = uitofp i64 %6 to double
  %8 = tail call double @log(double noundef %7) #22
  %9 = getelementptr inbounds i8, ptr %0, i64 144
  %10 = load double, ptr %9, align 8
  %11 = fsub double %8, %10
  ret double %11
}